; Function Attrs: mustprogress uwtable
define void @_ZNK2cv4rgbd11RgbdNormals10initializeEv(ptr noundef nonnull align 8 dereferenceable(136) %0) local_unnamed_addr #3 align 2 {
  %2 = getelementptr inbounds nuw i8, ptr %0, i64 128
  %3 = load ptr, ptr %2, align 8, !tbaa !30
  %4 = icmp eq ptr %3, null
  %5 = getelementptr inbounds nuw i8, ptr %0, i64 8
  %6 = load i32, ptr %5, align 8, !tbaa !6
  %7 = getelementptr inbounds nuw i8, ptr %0, i64 12
  %8 = load i32, ptr %7, align 4, !tbaa !20
  %9 = getelementptr inbounds nuw i8, ptr %0, i64 16
  %10 = load i32, ptr %9, align 8, !tbaa !21
  %11 = getelementptr inbounds nuw i8, ptr %0, i64 24
  %12 = getelementptr inbounds nuw i8, ptr %0, i64 120
  %13 = load i32, ptr %12, align 8, !tbaa !28
  %14 = getelementptr inbounds nuw i8, ptr %0, i64 124
  %15 = load i32, ptr %14, align 4, !tbaa !29
  br i1 %4, label %16, label %17

16:                                               ; preds = %1
  tail call void @_ZNK2cv4rgbd11RgbdNormals23initialize_normals_implEiiiRKNS_3MatEii(ptr noundef nonnull align 8 dereferenceable(136) %0, i32 noundef %6, i32 noundef %8, i32 noundef %10, ptr noundef nonnull align 8 dereferenceable(96) %11, i32 noundef %13, i32 noundef %15)
  br label %31

17:                                               ; preds = %1
  %18 = tail call noundef zeroext i1 @_ZNK2cv4rgbd15RgbdNormalsImpl8validateEiiiRKNS_3MatEii(ptr noundef nonnull align 8 dereferenceable(224) %3, i32 noundef %6, i32 noundef %8, i32 noundef %10, ptr noundef nonnull align 8 dereferenceable(96) %11, i32 noundef %13, i32 noundef %15)
  br i1 %18, label %31, label %19

19:                                               ; preds = %17
  %20 = load ptr, ptr %2, align 8, !tbaa !30
  %21 = load i32, ptr %14, align 4, !tbaa !29
  %22 = icmp ne ptr %20, null
  %switch.i = icmp ult i32 %21, 3
  %or.cond.i = and i1 %22, %switch.i
  br i1 %or.cond.i, label %.sink.split.i, label %_ZN2cv4rgbd19delete_normals_implEPvii.exit

.sink.split.i:                                    ; preds = %19
  %23 = load ptr, ptr %20, align 8, !tbaa !3
  %24 = getelementptr inbounds nuw i8, ptr %23, i64 8
  %25 = load ptr, ptr %24, align 8
  tail call void %25(ptr noundef nonnull align 8 dereferenceable(224) %20) #22
  %.pre = load i32, ptr %14, align 4, !tbaa !29
  br label %_ZN2cv4rgbd19delete_normals_implEPvii.exit

_ZN2cv4rgbd19delete_normals_implEPvii.exit:       ; preds = %19, %.sink.split.i
  %26 = phi i32 [ %21, %19 ], [ %.pre, %.sink.split.i ]
  %27 = load i32, ptr %5, align 8, !tbaa !6
  %28 = load i32, ptr %7, align 4, !tbaa !20
  %29 = load i32, ptr %9, align 8, !tbaa !21
  %30 = load i32, ptr %12, align 8, !tbaa !28
  tail call void @_ZNK2cv4rgbd11RgbdNormals23initialize_normals_implEiiiRKNS_3MatEii(ptr noundef nonnull align 8 dereferenceable(136) %0, i32 noundef %27, i32 noundef %28, i32 noundef %29, ptr noundef nonnull align 8 dereferenceable(96) %11, i32 noundef %30, i32 noundef %26)
  br label %31

31:                                               ; preds = %17, %_ZN2cv4rgbd19delete_normals_implEPvii.exit, %16
  ret void
}